target datalayout = "e-m:e-p270:32:32-p271:32:32-p272:64:64-i64:64-i128:128-f80:128-n8:16:32:64-S128"
target triple = "x86_64-pc-linux-gnu"

%struct.redisServer = type { i32, i64, ptr, ptr, ptr, i32, i32, i32, i32, i32, ptr, ptr, ptr, ptr, ptr, i32, i32, i32, i32, i64, i32, i32, i32, i32, ptr, i32, i32, [41 x i8], i32, i64, i32, i32, i32, ptr, ptr, i32, i32, i64, ptr, ptr, ptr, ptr, [2 x i32], i32, i32, i32, i32, i32, i32, [16 x ptr], i32, ptr, ptr, i32, [8 x %struct.connListener], i32, %struct.connListener, ptr, ptr, ptr, ptr, ptr, ptr, ptr, ptr, ptr, ptr, i32, ptr, i32, ptr, [3 x %struct.pause_event], [256 x i8], ptr, i64, i32, i32, [128 x i32], i32, i32, i64, i32, i32, i32, i32, i32, i64, i64, i64, i64, i64, i64, i64, i64, i64, i64, double, i64, i64, i64, i64, i64, i64, i64, i64, i64, i64, i64, i64, i64, i64, i64, i64, i64, i64, i64, i64, i64, double, i64, i64, i64, i64, i64, ptr, i64, i64, i64, %struct.malloc_stats, i64, i64, i64, i64, i64, i64, i64, i64, i64, i64, i64, i64, double, [4 x i64], i64, i64, i64, i64, [128 x i64], [128 x i64], i64, i64, [7 x %struct.anon], i64, i64, i64, i64, i64, i64, [4 x %struct.durationStats], i32, i32, i32, i32, i32, i32, i32, i32, i32, i32, i32, i32, i64, i32, i32, i32, i32, i64, i64, i32, i32, i32, i32, i32, ptr, [3 x %struct.clientBufferLimitsConfig], i32, i32, i32, ptr, i32, i32, i32, i32, i32, i32, ptr, ptr, i32, i32, i64, i64, i64, i64, i64, i32, i32, ptr, i32, i32, i64, i64, i64, i64, i64, i32, i32, i64, i32, i32, i32, i32, i32, i32, i32, i32, ptr, i32, i64, i64, i64, i64, i32, ptr, i32, ptr, i32, i32, i32, i64, i64, i64, i64, i32, i32, i32, i32, i32, i32, ptr, i32, i32, ptr, i32, i32, i32, [2 x i32], i32, %struct.redisOpArray, i32, ptr, i32, ptr, i32, i32, i32, i32, i32, i32, i32, [41 x i8], [41 x i8], i64, i64, i64, i64, i32, i32, ptr, i64, i64, %struct.replDataBuf, i64, i64, i32, i32, i32, i32, i32, i32, i32, i32, i32, i64, ptr, i64, ptr, ptr, ptr, i32, i32, ptr, ptr, i32, i32, i32, i64, i64, i64, i64, ptr, ptr, i32, ptr, i64, i32, i32, i32, i64, i32, i32, i32, i32, ptr, i32, i32, [41 x i8], i64, i32, ptr, i32, i32, i64, i64, i32, i32, i32, i32, i32, i64, [3 x i32], i32, i32, i32, [10 x i32], ptr, ptr, i32, i64, ptr, ptr, i32, i32, i32, i32, i64, i64, i64, i64, i64, i64, i64, i64, i64, i64, i32, i32, i64, i64, i32, i64, i64, i64, i64, i64, ptr, ptr, i32, ptr, i32, i32, i32, i32, i64, i64, ptr, ptr, i32, i32, i32, i32, i32, ptr, ptr, ptr, i32, i32, i32, i32, i32, i32, i32, i64, i32, i32, i64, i32, i32, i32, i32, i32, i32, i32, i64, ptr, ptr, i64, ptr, i32, %struct.aclInfo, i32, i64, i32, i32, i32, %struct.redisTLSContextConfig, ptr, ptr, ptr, ptr, ptr, i64, i32, ptr, i32, i32, i32, i64, i32, ptr }
%struct.connListener = type { [16 x i32], i32, ptr, i32, i32, ptr, ptr }
%struct.pause_event = type { i32, i64 }
%struct.malloc_stats = type { i64, i64, i64, i64, i64, i64, i64, i64, i64, i64, i64 }
%struct.anon = type { i64, i64, [16 x i64], i32 }
%struct.durationStats = type { i64, i64, i64 }
%struct.clientBufferLimitsConfig = type { i64, i64, i64 }
%struct.redisOpArray = type { ptr, i32, i32 }
%struct.replDataBuf = type { ptr, i64, i64, i64, i64 }
%struct.aclInfo = type { i64, i64, i64, i64 }
%struct.redisTLSContextConfig = type { ptr, ptr, ptr, ptr, ptr, ptr, ptr, ptr, ptr, ptr, ptr, ptr, i32, i32, i32, i32 }
%struct.sharedObjectsStruct = type { ptr, ptr, ptr, ptr, ptr, ptr, ptr, ptr, [4 x ptr], [4 x ptr], [4 x ptr], [4 x ptr], ptr, ptr, ptr, ptr, ptr, ptr, ptr, ptr, ptr, ptr, ptr, ptr, ptr, ptr, ptr, ptr, ptr, ptr, ptr, ptr, ptr, ptr, ptr, ptr, ptr, ptr, ptr, ptr, ptr, ptr, ptr, ptr, ptr, ptr, ptr, ptr, ptr, ptr, ptr, ptr, ptr, ptr, ptr, ptr, ptr, ptr, ptr, ptr, ptr, ptr, ptr, ptr, ptr, ptr, ptr, ptr, ptr, ptr, ptr, ptr, ptr, ptr, ptr, ptr, ptr, ptr, ptr, ptr, ptr, ptr, ptr, ptr, ptr, ptr, ptr, ptr, [10 x ptr], [10000 x ptr], [32 x ptr], [32 x ptr], [32 x ptr], [32 x ptr], ptr, ptr }
%struct.redisDb = type { ptr, ptr, ptr, ptr, ptr, ptr, ptr, i32, i64, i64, ptr }
%struct.client = type { i64, i64, ptr, i8, i8, i8, i8, i32, ptr, ptr, ptr, ptr, ptr, i64, i64, i32, ptr, i32, i32, ptr, i64, ptr, ptr, ptr, ptr, ptr, i32, i32, i64, ptr, i64, ptr, i64, i64, i64, i32, ptr, i64, i64, i32, i32, i32, i32, i64, i64, ptr, i64, i64, i64, i64, i64, i64, i64, i64, [41 x i8], i32, ptr, i32, i32, i64, %struct.multiState, %struct.blockingState, i64, ptr, ptr, ptr, ptr, ptr, ptr, ptr, ptr, ptr, ptr, ptr, ptr, ptr, ptr, i64, ptr, i64, i32, ptr, ptr, ptr, i64, %struct.listNode, i64, i64, i32, i64, ptr }
%struct.multiState = type { ptr, i32, i32, i32, i64, i32 }
%struct.blockingState = type { i32, i64, i32, ptr, i32, i32, i64, ptr, ptr, i64 }
%struct.listNode = type { ptr, ptr, ptr }

@server = external global %struct.redisServer, align 8
@shared = external global %struct.sharedObjectsStruct, align 8
@.str.13 = private unnamed_addr constant [8 x i8] c"persist\00", align 1

; Function Attrs: nounwind uwtable
define dso_local void @persistCommand(ptr noundef %0) #0 {
  %2 = alloca ptr, align 8
  store ptr %0, ptr %2, align 8, !tbaa !83
  %3 = load ptr, ptr %2, align 8, !tbaa !83
  %4 = getelementptr inbounds nuw %struct.client, ptr %3, i32 0, i32 8
  %5 = load ptr, ptr %4, align 8, !tbaa !97
  %6 = load ptr, ptr %2, align 8, !tbaa !83
  %7 = getelementptr inbounds nuw %struct.client, ptr %6, i32 0, i32 16
  %8 = load ptr, ptr %7, align 8, !tbaa !95
  %9 = getelementptr inbounds ptr, ptr %8, i64 1
  %10 = load ptr, ptr %9, align 8, !tbaa !16
  %11 = call ptr @lookupKeyWrite(ptr noundef %5, ptr noundef %10)
  %12 = icmp ne ptr %11, null
  br i1 %12, label %13, label %52

13:                                               ; preds = %1
  %14 = load ptr, ptr %2, align 8, !tbaa !83
  %15 = getelementptr inbounds nuw %struct.client, ptr %14, i32 0, i32 8
  %16 = load ptr, ptr %15, align 8, !tbaa !97
  %17 = load ptr, ptr %2, align 8, !tbaa !83
  %18 = getelementptr inbounds nuw %struct.client, ptr %17, i32 0, i32 16
  %19 = load ptr, ptr %18, align 8, !tbaa !95
  %20 = getelementptr inbounds ptr, ptr %19, i64 1
  %21 = load ptr, ptr %20, align 8, !tbaa !16
  %22 = call i32 @removeExpire(ptr noundef %16, ptr noundef %21)
  %23 = icmp ne i32 %22, 0
  br i1 %23, label %24, label %48

24:                                               ; preds = %13
  %25 = load ptr, ptr %2, align 8, !tbaa !83
  %26 = load ptr, ptr %2, align 8, !tbaa !83
  %27 = getelementptr inbounds nuw %struct.client, ptr %26, i32 0, i32 8
  %28 = load ptr, ptr %27, align 8, !tbaa !97
  %29 = load ptr, ptr %2, align 8, !tbaa !83
  %30 = getelementptr inbounds nuw %struct.client, ptr %29, i32 0, i32 16
  %31 = load ptr, ptr %30, align 8, !tbaa !95
  %32 = getelementptr inbounds ptr, ptr %31, i64 1
  %33 = load ptr, ptr %32, align 8, !tbaa !16
  call void @signalModifiedKey(ptr noundef %25, ptr noundef %28, ptr noundef %33)
  %34 = load ptr, ptr %2, align 8, !tbaa !83
  %35 = getelementptr inbounds nuw %struct.client, ptr %34, i32 0, i32 16
  %36 = load ptr, ptr %35, align 8, !tbaa !95
  %37 = getelementptr inbounds ptr, ptr %36, i64 1
  %38 = load ptr, ptr %37, align 8, !tbaa !16
  %39 = load ptr, ptr %2, align 8, !tbaa !83
  %40 = getelementptr inbounds nuw %struct.client, ptr %39, i32 0, i32 8
  %41 = load ptr, ptr %40, align 8, !tbaa !97
  %42 = getelementptr inbounds nuw %struct.redisDb, ptr %41, i32 0, i32 7
  %43 = load i32, ptr %42, align 8, !tbaa !78
  call void @notifyKeyspaceEvent(i32 noundef 4, ptr noundef @.str.13, ptr noundef %38, i32 noundef %43)
  %44 = load ptr, ptr %2, align 8, !tbaa !83
  %45 = load ptr, ptr getelementptr inbounds nuw (%struct.sharedObjectsStruct, ptr @shared, i32 0, i32 4), align 8, !tbaa !104
  call void @addReply(ptr noundef %44, ptr noundef %45)
  %46 = load i64, ptr getelementptr inbounds nuw (%struct.redisServer, ptr @server, i32 0, i32 227), align 8, !tbaa !101
  %47 = add nsw i64 %46, 1
  store i64 %47, ptr getelementptr inbounds nuw (%struct.redisServer, ptr @server, i32 0, i32 227), align 8, !tbaa !101
  br label %51

48:                                               ; preds = %13
  %49 = load ptr, ptr %2, align 8, !tbaa !83
  %50 = load ptr, ptr getelementptr inbounds nuw (%struct.sharedObjectsStruct, ptr @shared, i32 0, i32 3), align 8, !tbaa !98
  call void @addReply(ptr noundef %49, ptr noundef %50)
  br label %51

51:                                               ; preds = %48, %24
  br label %55

52:                                               ; preds = %1
  %53 = load ptr, ptr %2, align 8, !tbaa !83
  %54 = load ptr, ptr getelementptr inbounds nuw (%struct.sharedObjectsStruct, ptr @shared, i32 0, i32 3), align 8, !tbaa !98
  call void @addReply(ptr noundef %53, ptr noundef %54)
  br label %55

55:                                               ; preds = %52, %51
  ret void
}