; Function Attrs: nounwind uwtable
define dso_local void @persistCommand(ptr noundef %0) local_unnamed_addr #0 {
  %2 = getelementptr inbounds nuw i8, ptr %0, i64 32
  %3 = load ptr, ptr %2, align 8, !tbaa !91
  %4 = getelementptr inbounds nuw i8, ptr %0, i64 96
  %5 = load ptr, ptr %4, align 8, !tbaa !88
  %6 = getelementptr inbounds nuw i8, ptr %5, i64 8
  %7 = load ptr, ptr %6, align 8, !tbaa !89
  %8 = tail call ptr @lookupKeyWrite(ptr noundef %3, ptr noundef %7) #10
  %.not = icmp eq ptr %8, null
  br i1 %.not, label %31, label %9

9:                                                ; preds = %1
  %10 = load ptr, ptr %2, align 8, !tbaa !91
  %11 = load ptr, ptr %4, align 8, !tbaa !88
  %12 = getelementptr inbounds nuw i8, ptr %11, i64 8
  %13 = load ptr, ptr %12, align 8, !tbaa !89
  %14 = tail call i32 @removeExpire(ptr noundef %10, ptr noundef %13) #10
  %.not12 = icmp eq i32 %14, 0
  br i1 %.not12, label %29, label %15

15:                                               ; preds = %9
  %16 = load ptr, ptr %2, align 8, !tbaa !91
  %17 = load ptr, ptr %4, align 8, !tbaa !88
  %18 = getelementptr inbounds nuw i8, ptr %17, i64 8
  %19 = load ptr, ptr %18, align 8, !tbaa !89
  tail call void @signalModifiedKey(ptr noundef nonnull %0, ptr noundef %16, ptr noundef %19) #10
  %20 = load ptr, ptr %4, align 8, !tbaa !88
  %21 = getelementptr inbounds nuw i8, ptr %20, i64 8
  %22 = load ptr, ptr %21, align 8, !tbaa !89
  %23 = load ptr, ptr %2, align 8, !tbaa !91
  %24 = getelementptr inbounds nuw i8, ptr %23, i64 56
  %25 = load i32, ptr %24, align 8, !tbaa !72
  tail call void @notifyKeyspaceEvent(i32 noundef 4, ptr noundef nonnull @.str.13, ptr noundef %22, i32 noundef %25) #10
  %26 = load ptr, ptr getelementptr inbounds nuw (i8, ptr @shared, i64 32), align 8, !tbaa !97
  tail call void @addReply(ptr noundef nonnull %0, ptr noundef %26) #10
  %27 = load i64, ptr getelementptr inbounds nuw (i8, ptr @server, i64 6720), align 8, !tbaa !96
  %28 = add nsw i64 %27, 1
  store i64 %28, ptr getelementptr inbounds nuw (i8, ptr @server, i64 6720), align 8, !tbaa !96
  br label %33

29:                                               ; preds = %9
  %30 = load ptr, ptr getelementptr inbounds nuw (i8, ptr @shared, i64 24), align 8, !tbaa !92
  tail call void @addReply(ptr noundef nonnull %0, ptr noundef %30) #10
  br label %33

31:                                               ; preds = %1
  %32 = load ptr, ptr getelementptr inbounds nuw (i8, ptr @shared, i64 24), align 8, !tbaa !92
  tail call void @addReply(ptr noundef nonnull %0, ptr noundef %32) #10
  br label %33

33:                                               ; preds = %15, %29, %31
  ret void
}